target datalayout = "e-m:e-p270:32:32-p271:32:32-p272:64:64-i64:64-i128:128-f80:128-n8:16:32:64-S128"
target triple = "x86_64-pc-linux-gnu"

%struct.stats_t = type { double, double, double, i32, i32, i32 }
%struct.info_t = type { ptr, i16, ptr, i32, i32, i32, i32, i32, i32, i32, %struct.side_t, %struct.side_t, i32, %struct.memBuf_t, %struct.memBuf_t, i32, %struct.stats_t, %struct.stats_t }
%struct.side_t = type { i32, i32, i32 }
%struct.memBuf_t = type { [16486 x i8], i32, i32, i32, i32, %struct.COND_TYPE, i32 }
%struct.COND_TYPE = type { %union.pthread_mutex_t, %union.pthread_cond_t }
%union.pthread_mutex_t = type { %struct.__pthread_mutex_s }
%struct.__pthread_mutex_s = type { i32, i32, i32, i32, i32, i16, i16, %struct.__pthread_internal_list }
%struct.__pthread_internal_list = type { ptr, ptr }
%union.pthread_cond_t = type { %struct.__pthread_cond_s }
%struct.__pthread_cond_s = type { %union.__atomic_wide_counter, %union.__atomic_wide_counter, [2 x i32], [2 x i32], i32, i32, [2 x i32] }
%union.__atomic_wide_counter = type { i64 }

@stderr = external global ptr, align 8
@.str.7 = private unnamed_addr constant [26 x i8] c"%s L%d error %d for \22%s\22\0A\00", align 1
@.str.8 = private unnamed_addr constant [124 x i8] c"generated/home/dtcxzyw/WorkSpace/Projects/compilers/llvm-opt-benchmark/bench/wolfssl/wolfssl/examples/benchmark/tls_bench.c\00", align 1
@.str.10 = private unnamed_addr constant [19 x i8] c"thread call failed\00", align 1
@.str.100 = private unnamed_addr constant [41 x i8] c"wolfSSL_CondStart(&info->to_client.cond)\00", align 1
@.str.102 = private unnamed_addr constant [39 x i8] c"wolfSSL_CondEnd(&info->to_client.cond)\00", align 1
@.str.137 = private unnamed_addr constant [42 x i8] c"wolfSSL_CondSignal(&info->to_client.cond)\00", align 1

; Function Attrs: nounwind uwtable
define internal void @CloseAndCleanupListenSocket(ptr noundef %0) #0 {
  %2 = alloca ptr, align 8
  store ptr %0, ptr %2, align 8, !tbaa !81
  %3 = load ptr, ptr %2, align 8, !tbaa !81
  %4 = load i32, ptr %3, align 4, !tbaa !8
  %5 = icmp ne i32 %4, -1
  br i1 %5, label %6, label %11

6:                                                ; preds = %1
  %7 = load ptr, ptr %2, align 8, !tbaa !81
  %8 = load i32, ptr %7, align 4, !tbaa !8
  %9 = call i32 @close(i32 noundef %8)
  %10 = load ptr, ptr %2, align 8, !tbaa !81
  store i32 -1, ptr %10, align 4, !tbaa !8
  br label %11

11:                                               ; preds = %6, %1
  ret void
}

; Function Attrs: nounwind uwtable
define internal ptr @server_thread(ptr noundef %0) #0 {
  %2 = alloca ptr, align 8
  %3 = alloca i32, align 4
  %4 = alloca ptr, align 8
  %5 = alloca i32, align 4
  %6 = alloca i32, align 4
  %7 = alloca i32, align 4
  store ptr %0, ptr %2, align 8, !tbaa !4
  call void @llvm.lifetime.start.p0(i64 4, ptr %3) #12
  store i32 0, ptr %3, align 4, !tbaa !8
  call void @llvm.lifetime.start.p0(i64 8, ptr %4) #12
  %8 = load ptr, ptr %2, align 8, !tbaa !4
  store ptr %8, ptr %4, align 8, !tbaa !4
  %9 = load ptr, ptr %4, align 8, !tbaa !4
  %10 = getelementptr inbounds nuw %struct.info_t, ptr %9, i32 0, i32 12
  %11 = load i32, ptr %10, align 4, !tbaa !48
  %12 = icmp ne i32 %11, 0
  br i1 %12, label %20, label %13

13:                                               ; preds = %1
  %14 = load ptr, ptr %4, align 8, !tbaa !4
  %15 = getelementptr inbounds nuw %struct.info_t, ptr %14, i32 0, i32 9
  %16 = load ptr, ptr %4, align 8, !tbaa !4
  %17 = getelementptr inbounds nuw %struct.info_t, ptr %16, i32 0, i32 3
  %18 = load i32, ptr %17, align 8, !tbaa !37
  %19 = call i32 @SetupSocketAndListen(ptr noundef %15, i32 noundef %18, i32 noundef 0)
  store i32 %19, ptr %3, align 4, !tbaa !8
  br label %20

20:                                               ; preds = %13, %1
  %21 = load i32, ptr %3, align 4, !tbaa !8
  %22 = icmp eq i32 %21, 0
  br i1 %22, label %23, label %34

23:                                               ; preds = %20
  %24 = load ptr, ptr %4, align 8, !tbaa !4
  %25 = call i32 @bench_tls_server(ptr noundef %24)
  store i32 %25, ptr %3, align 4, !tbaa !8
  %26 = load ptr, ptr %4, align 8, !tbaa !4
  %27 = getelementptr inbounds nuw %struct.info_t, ptr %26, i32 0, i32 12
  %28 = load i32, ptr %27, align 4, !tbaa !48
  %29 = icmp ne i32 %28, 0
  br i1 %29, label %33, label %30

30:                                               ; preds = %23
  %31 = load ptr, ptr %4, align 8, !tbaa !4
  %32 = getelementptr inbounds nuw %struct.info_t, ptr %31, i32 0, i32 9
  call void @CloseAndCleanupListenSocket(ptr noundef %32)
  br label %33

33:                                               ; preds = %30, %23
  br label %34

34:                                               ; preds = %33, %20
  br label %35

35:                                               ; preds = %34
  call void @llvm.lifetime.start.p0(i64 4, ptr %5) #12
  %36 = load ptr, ptr %4, align 8, !tbaa !4
  %37 = getelementptr inbounds nuw %struct.info_t, ptr %36, i32 0, i32 14
  %38 = getelementptr inbounds nuw %struct.memBuf_t, ptr %37, i32 0, i32 5
  %39 = call i32 @wolfSSL_CondStart(ptr noundef %38)
  store i32 %39, ptr %5, align 4, !tbaa !8
  %40 = load i32, ptr %5, align 4, !tbaa !8
  %41 = icmp ne i32 %40, 0
  br i1 %41, label %42, label %48

42:                                               ; preds = %35
  %43 = load i32, ptr %5, align 4, !tbaa !8
  %44 = call ptr @__errno_location() #14
  store i32 %43, ptr %44, align 4, !tbaa !8
  %45 = load ptr, ptr @stderr, align 8, !tbaa !20
  %46 = load i32, ptr %5, align 4, !tbaa !8
  %47 = call i32 (ptr, ptr, ...) @fprintf(ptr noundef %45, ptr noundef @.str.7, ptr noundef @.str.8, i32 noundef 1700, i32 noundef %46, ptr noundef @.str.100) #12
  call void @err_sys(ptr noundef @.str.10) #15
  unreachable

48:                                               ; preds = %35
  call void @llvm.lifetime.end.p0(i64 4, ptr %5) #12
  br label %49

49:                                               ; preds = %48
  br label %50

50:                                               ; preds = %49
  %51 = load ptr, ptr %4, align 8, !tbaa !4
  %52 = getelementptr inbounds nuw %struct.info_t, ptr %51, i32 0, i32 13
  %53 = getelementptr inbounds nuw %struct.memBuf_t, ptr %52, i32 0, i32 6
  store i32 1, ptr %53, align 8, !tbaa !51
  %54 = load i32, ptr %3, align 4, !tbaa !8
  %55 = load ptr, ptr %4, align 8, !tbaa !4
  %56 = getelementptr inbounds nuw %struct.info_t, ptr %55, i32 0, i32 11
  %57 = getelementptr inbounds nuw %struct.side_t, ptr %56, i32 0, i32 2
  store i32 %54, ptr %57, align 8, !tbaa !96
  br label %58

58:                                               ; preds = %50
  call void @llvm.lifetime.start.p0(i64 4, ptr %6) #12
  %59 = load ptr, ptr %4, align 8, !tbaa !4
  %60 = getelementptr inbounds nuw %struct.info_t, ptr %59, i32 0, i32 14
  %61 = getelementptr inbounds nuw %struct.memBuf_t, ptr %60, i32 0, i32 5
  %62 = call i32 @wolfSSL_CondSignal(ptr noundef %61)
  store i32 %62, ptr %6, align 4, !tbaa !8
  %63 = load i32, ptr %6, align 4, !tbaa !8
  %64 = icmp ne i32 %63, 0
  br i1 %64, label %65, label %71

65:                                               ; preds = %58
  %66 = load i32, ptr %6, align 4, !tbaa !8
  %67 = call ptr @__errno_location() #14
  store i32 %66, ptr %67, align 4, !tbaa !8
  %68 = load ptr, ptr @stderr, align 8, !tbaa !20
  %69 = load i32, ptr %6, align 4, !tbaa !8
  %70 = call i32 (ptr, ptr, ...) @fprintf(ptr noundef %68, ptr noundef @.str.7, ptr noundef @.str.8, i32 noundef 1703, i32 noundef %69, ptr noundef @.str.137) #12
  call void @err_sys(ptr noundef @.str.10) #15
  unreachable

71:                                               ; preds = %58
  call void @llvm.lifetime.end.p0(i64 4, ptr %6) #12
  br label %72

72:                                               ; preds = %71
  br label %73

73:                                               ; preds = %72
  br label %74

74:                                               ; preds = %73
  call void @llvm.lifetime.start.p0(i64 4, ptr %7) #12
  %75 = load ptr, ptr %4, align 8, !tbaa !4
  %76 = getelementptr inbounds nuw %struct.info_t, ptr %75, i32 0, i32 14
  %77 = getelementptr inbounds nuw %struct.memBuf_t, ptr %76, i32 0, i32 5
  %78 = call i32 @wolfSSL_CondEnd(ptr noundef %77)
  store i32 %78, ptr %7, align 4, !tbaa !8
  %79 = load i32, ptr %7, align 4, !tbaa !8
  %80 = icmp ne i32 %79, 0
  br i1 %80, label %81, label %87

81:                                               ; preds = %74
  %82 = load i32, ptr %7, align 4, !tbaa !8
  %83 = call ptr @__errno_location() #14
  store i32 %82, ptr %83, align 4, !tbaa !8
  %84 = load ptr, ptr @stderr, align 8, !tbaa !20
  %85 = load i32, ptr %7, align 4, !tbaa !8
  %86 = call i32 (ptr, ptr, ...) @fprintf(ptr noundef %84, ptr noundef @.str.7, ptr noundef @.str.8, i32 noundef 1704, i32 noundef %85, ptr noundef @.str.102) #12
  call void @err_sys(ptr noundef @.str.10) #15
  unreachable

87:                                               ; preds = %74
  call void @llvm.lifetime.end.p0(i64 4, ptr %7) #12
  br label %88

88:                                               ; preds = %87
  br label %89

89:                                               ; preds = %88
  call void @llvm.lifetime.end.p0(i64 8, ptr %4) #12
  call void @llvm.lifetime.end.p0(i64 4, ptr %3) #12
  ret ptr null
}