; Function Attrs: nounwind uwtable
define internal noalias noundef ptr @server_thread(ptr noundef %0) #0 {
  %2 = getelementptr inbounds nuw i8, ptr %0, i64 76
  %3 = load i32, ptr %2, align 4, !tbaa !46
  %.not = icmp eq i32 %3, 0
  br i1 %.not, label %4, label %.critedge

4:                                                ; preds = %1
  %5 = getelementptr inbounds nuw i8, ptr %0, i64 48
  %6 = getelementptr inbounds nuw i8, ptr %0, i64 24
  %7 = load i32, ptr %6, align 8, !tbaa !35
  %8 = tail call fastcc i32 @SetupSocketAndListen(ptr noundef nonnull %5, i32 noundef %7)
  %9 = icmp eq i32 %8, 0
  br i1 %9, label %.critedge, label %CloseAndCleanupListenSocket.exit

.critedge:                                        ; preds = %1, %4
  %10 = tail call fastcc i32 @bench_tls_server(ptr noundef nonnull %0)
  %11 = load i32, ptr %2, align 4, !tbaa !46
  %.not25 = icmp eq i32 %11, 0
  br i1 %.not25, label %12, label %CloseAndCleanupListenSocket.exit

12:                                               ; preds = %.critedge
  %13 = getelementptr inbounds nuw i8, ptr %0, i64 48
  %14 = load i32, ptr %13, align 4, !tbaa !4
  %.not.i = icmp eq i32 %14, -1
  br i1 %.not.i, label %CloseAndCleanupListenSocket.exit, label %15

15:                                               ; preds = %12
  %16 = tail call i32 @close(i32 noundef %14) #17
  store i32 -1, ptr %13, align 4, !tbaa !4
  br label %CloseAndCleanupListenSocket.exit

CloseAndCleanupListenSocket.exit:                 ; preds = %15, %12, %4, %.critedge
  %.1 = phi i32 [ %10, %.critedge ], [ -1, %4 ], [ %10, %12 ], [ %10, %15 ]
  %17 = getelementptr inbounds nuw i8, ptr %0, i64 33184
  %18 = tail call i32 @wolfSSL_CondStart(ptr noundef nonnull %17) #17
  %.not26 = icmp eq i32 %18, 0
  br i1 %.not26, label %23, label %19

19:                                               ; preds = %CloseAndCleanupListenSocket.exit
  %20 = tail call ptr @__errno_location() #21
  store i32 %18, ptr %20, align 4, !tbaa !4
  %21 = load ptr, ptr @stderr, align 8, !tbaa !19
  %22 = tail call i32 (ptr, ptr, ...) @fprintf(ptr noundef %21, ptr noundef nonnull @.str.7, ptr noundef nonnull @.str.8, i32 noundef 1700, i32 noundef %18, ptr noundef nonnull @.str.100) #18
  tail call fastcc void @err_sys(ptr noundef nonnull @.str.10) #22
  unreachable

23:                                               ; preds = %CloseAndCleanupListenSocket.exit
  %24 = getelementptr inbounds nuw i8, ptr %0, i64 16672
  store i32 1, ptr %24, align 8, !tbaa !49
  %25 = getelementptr inbounds nuw i8, ptr %0, i64 72
  store i32 %.1, ptr %25, align 8, !tbaa !89
  %26 = tail call i32 @wolfSSL_CondSignal(ptr noundef nonnull %17) #17
  %.not27 = icmp eq i32 %26, 0
  br i1 %.not27, label %31, label %27

27:                                               ; preds = %23
  %28 = tail call ptr @__errno_location() #21
  store i32 %26, ptr %28, align 4, !tbaa !4
  %29 = load ptr, ptr @stderr, align 8, !tbaa !19
  %30 = tail call i32 (ptr, ptr, ...) @fprintf(ptr noundef %29, ptr noundef nonnull @.str.7, ptr noundef nonnull @.str.8, i32 noundef 1703, i32 noundef %26, ptr noundef nonnull @.str.137) #18
  tail call fastcc void @err_sys(ptr noundef nonnull @.str.10) #22
  unreachable

31:                                               ; preds = %23
  %32 = tail call i32 @wolfSSL_CondEnd(ptr noundef nonnull %17) #17
  %.not28 = icmp eq i32 %32, 0
  br i1 %.not28, label %37, label %33

33:                                               ; preds = %31
  %34 = tail call ptr @__errno_location() #21
  store i32 %32, ptr %34, align 4, !tbaa !4
  %35 = load ptr, ptr @stderr, align 8, !tbaa !19
  %36 = tail call i32 (ptr, ptr, ...) @fprintf(ptr noundef %35, ptr noundef nonnull @.str.7, ptr noundef nonnull @.str.8, i32 noundef 1704, i32 noundef %32, ptr noundef nonnull @.str.102) #18
  tail call fastcc void @err_sys(ptr noundef nonnull @.str.10) #22
  unreachable

37:                                               ; preds = %31
  ret ptr null
}